target datalayout = "e-m:e-p270:32:32-p271:32:32-p272:64:64-i64:64-i128:128-f80:128-n8:16:32:64-S128"
target triple = "x86_64-pc-linux-gnu"

%struct._asn1_ctx_t = type { i32, i32, i8, ptr, ptr, ptr, ptr, ptr, %struct.anon.0, %struct.anon.3, %struct.anon.4, ptr }
%struct.anon.0 = type { i32, i8, i8, i8, ptr, ptr, i32, i32, ptr, ptr, ptr, %union.anon }
%union.anon = type { %struct.anon.1 }
%struct.anon.1 = type { ptr }
%struct.anon.3 = type { ptr, ptr, ptr }
%struct.anon.4 = type { i32, i8, ptr, i32, i32, ptr, ptr, ptr, %union.anon.5 }
%union.anon.5 = type { %struct.anon.6 }
%struct.anon.6 = type { ptr }

@ett_per_containing = internal global i32 0, align 4

; Function Attrs: null_pointer_is_valid sspstrong uwtable
define i32 @dissect_per_octet_string_containing_pdu_new(ptr noundef %0, i32 noundef %1, ptr noundef %2, ptr noundef %3, i32 noundef %4, i32 noundef %5, i32 noundef %6, i1 noundef zeroext %7, ptr noundef %8) #0 {
  %10 = alloca ptr, align 8
  %11 = alloca i32, align 4
  %12 = alloca ptr, align 8
  %13 = alloca ptr, align 8
  %14 = alloca i32, align 4
  %15 = alloca i32, align 4
  %16 = alloca i32, align 4
  %17 = alloca i8, align 1
  %18 = alloca ptr, align 8
  %19 = alloca ptr, align 8
  %20 = alloca ptr, align 8
  store ptr %0, ptr %10, align 8
  store i32 %1, ptr %11, align 4
  store ptr %2, ptr %12, align 8
  store ptr %3, ptr %13, align 8
  store i32 %4, ptr %14, align 4
  store i32 %5, ptr %15, align 4
  store i32 %6, ptr %16, align 4
  %21 = zext i1 %7 to i8
  store i8 %21, ptr %17, align 1
  store ptr %8, ptr %18, align 8
  call void @llvm.lifetime.start.p0(i64 8, ptr %19) #11
  store ptr null, ptr %19, align 8
  call void @llvm.lifetime.start.p0(i64 8, ptr %20) #11
  %22 = load ptr, ptr %13, align 8
  store ptr %22, ptr %20, align 8
  %23 = load ptr, ptr %10, align 8
  %24 = load i32, ptr %11, align 4
  %25 = load ptr, ptr %12, align 8
  %26 = load ptr, ptr %13, align 8
  %27 = load i32, ptr %14, align 4
  %28 = load i32, ptr %15, align 4
  %29 = load i32, ptr %16, align 4
  %30 = load i8, ptr %17, align 1, !range !6, !noundef !7
  %31 = trunc i8 %30 to i1
  %32 = call i32 @dissect_per_octet_string(ptr noundef %23, i32 noundef %24, ptr noundef %25, ptr noundef %26, i32 noundef %27, i32 noundef %28, i32 noundef %29, i1 noundef zeroext %31, ptr noundef %19)
  store i32 %32, ptr %11, align 4
  %33 = load ptr, ptr %18, align 8
  %34 = icmp ne ptr %33, null
  br i1 %34, label %35, label %55

35:                                               ; preds = %9
  %36 = load ptr, ptr %19, align 8
  %37 = icmp ne ptr %36, null
  br i1 %37, label %38, label %55

38:                                               ; preds = %35
  %39 = load ptr, ptr %19, align 8
  %40 = call i32 @tvb_reported_length(ptr noundef %39)
  %41 = icmp ugt i32 %40, 0
  br i1 %41, label %42, label %55

42:                                               ; preds = %38
  %43 = load ptr, ptr %12, align 8
  %44 = getelementptr inbounds nuw %struct._asn1_ctx_t, ptr %43, i32 0, i32 4
  %45 = load ptr, ptr %44, align 8
  %46 = load i32, ptr @ett_per_containing, align 4
  %47 = call ptr @proto_item_add_subtree(ptr noundef %45, i32 noundef %46)
  store ptr %47, ptr %20, align 8
  %48 = load ptr, ptr %18, align 8
  %49 = load ptr, ptr %19, align 8
  %50 = load ptr, ptr %12, align 8
  %51 = getelementptr inbounds nuw %struct._asn1_ctx_t, ptr %50, i32 0, i32 3
  %52 = load ptr, ptr %51, align 8
  %53 = load ptr, ptr %20, align 8
  %54 = call i32 %48(ptr noundef %49, ptr noundef %52, ptr noundef %53, ptr noundef null)
  br label %55

55:                                               ; preds = %42, %38, %35, %9
  %56 = load i32, ptr %11, align 4
  call void @llvm.lifetime.end.p0(i64 8, ptr %20) #11
  call void @llvm.lifetime.end.p0(i64 8, ptr %19) #11
  ret i32 %56
}