; Function Attrs: null_pointer_is_valid sspstrong uwtable
define i32 @dissect_per_octet_string_containing_pdu_new(ptr noundef %0, i32 noundef %1, ptr noundef captures(none) %2, ptr noundef %3, i32 noundef %4, i32 noundef %5, i32 noundef %6, i1 noundef zeroext %7, ptr noundef readonly captures(address_is_null) %8) local_unnamed_addr #0 {
  %10 = alloca ptr, align 8
  call void @llvm.lifetime.start.p0(i64 8, ptr nonnull %10) #13
  store ptr null, ptr %10, align 8
  %11 = call i32 @dissect_per_octet_string(ptr noundef %0, i32 noundef %1, ptr noundef %2, ptr noundef %3, i32 noundef %4, i32 noundef %5, i32 noundef %6, i1 noundef zeroext %7, ptr noundef nonnull %10)
  %12 = icmp ne ptr %8, null
  %13 = load ptr, ptr %10, align 8
  %14 = icmp ne ptr %13, null
  %or.cond = select i1 %12, i1 %14, i1 false
  br i1 %or.cond, label %15, label %26

15:                                               ; preds = %9
  %16 = call i32 @tvb_reported_length(ptr noundef nonnull %13)
  %.not = icmp eq i32 %16, 0
  br i1 %.not, label %26, label %17

17:                                               ; preds = %15
  %18 = getelementptr inbounds nuw i8, ptr %2, i64 24
  %19 = load ptr, ptr %18, align 8
  %20 = load i32, ptr @ett_per_containing, align 4
  %21 = call ptr @proto_item_add_subtree(ptr noundef %19, i32 noundef %20)
  %22 = load ptr, ptr %10, align 8
  %23 = getelementptr inbounds nuw i8, ptr %2, i64 16
  %24 = load ptr, ptr %23, align 8
  %25 = call i32 %8(ptr noundef %22, ptr noundef %24, ptr noundef %21, ptr noundef null)
  br label %26

26:                                               ; preds = %17, %15, %9
  call void @llvm.lifetime.end.p0(i64 8, ptr nonnull %10) #13
  ret i32 %11
}